; ModuleID = 'source-C-CXX/4/567.c'
source_filename = "source-C-CXX/4/567.c"
target datalayout = "e-m:e-p270:32:32-p271:32:32-p272:64:64-i64:64-f80:128-n8:16:32:64-S128"
target triple = "x86_64-pc-linux-gnu"

@.str = private unnamed_addr constant [3 x i8] c"%f\00", align 1
@.str.1 = private unnamed_addr constant [3 x i8] c"%s\00", align 1
@.str.2 = private unnamed_addr constant [6 x i8] c"error\00", align 1
@.str.3 = private unnamed_addr constant [4 x i8] c"yes\00", align 1
@.str.4 = private unnamed_addr constant [3 x i8] c"no\00", align 1

; Function Attrs: nofree nounwind sspstrong uwtable
define dso_local i32 @main() local_unnamed_addr #0 {
  %1 = alloca [100 x i8], align 16
  %2 = alloca [100 x i8], align 16
  %3 = alloca float, align 4
  %4 = getelementptr inbounds [100 x i8], [100 x i8]* %1, i64 0, i64 0
  call void @llvm.lifetime.start.p0i8(i64 100, i8* nonnull %4) #5
  call void @llvm.memset.p0i8.i64(i8* noundef nonnull align 16 dereferenceable(100) %4, i8 0, i64 100, i1 false)
  %5 = getelementptr inbounds [100 x i8], [100 x i8]* %2, i64 0, i64 0
  call void @llvm.lifetime.start.p0i8(i64 100, i8* nonnull %5) #5
  call void @llvm.memset.p0i8.i64(i8* noundef nonnull align 16 dereferenceable(100) %5, i8 0, i64 100, i1 false)
  %6 = bitcast float* %3 to i8*
  call void @llvm.lifetime.start.p0i8(i64 4, i8* nonnull %6) #5
  %7 = call i32 (i8*, ...) @__isoc99_scanf(i8* getelementptr inbounds ([3 x i8], [3 x i8]* @.str, i64 0, i64 0), float* nonnull %3)
  %8 = call i32 (i8*, ...) @__isoc99_scanf(i8* getelementptr inbounds ([3 x i8], [3 x i8]* @.str.1, i64 0, i64 0), i8* nonnull %4)
  %9 = call i32 (i8*, ...) @__isoc99_scanf(i8* getelementptr inbounds ([3 x i8], [3 x i8]* @.str.1, i64 0, i64 0), i8* nonnull %5)
  %10 = call i64 @strlen(i8* noundef nonnull %4) #6
  %11 = trunc i64 %10 to i32
  %12 = call i64 @strlen(i8* noundef nonnull %5) #6
  %13 = trunc i64 %12 to i32
  %14 = icmp eq i32 %11, %13
  br i1 %14, label %15, label %42

15:                                               ; preds = %0
  %16 = icmp sgt i32 %11, 0
  br i1 %16, label %17, label %35

17:                                               ; preds = %15
  %18 = and i64 %10, 4294967295
  br label %19

19:                                               ; preds = %17, %27
  %20 = phi i64 [ 0, %17 ], [ %31, %27 ]
  %21 = phi i32 [ 0, %17 ], [ %30, %27 ]
  %22 = getelementptr inbounds [100 x i8], [100 x i8]* %1, i64 0, i64 %20
  %23 = load i8, i8* %22, align 1, !tbaa !5
  switch i8 %23, label %42 [
    i8 65, label %24
    i8 84, label %24
    i8 67, label %24
    i8 71, label %24
  ]

24:                                               ; preds = %19, %19, %19, %19
  %25 = getelementptr inbounds [100 x i8], [100 x i8]* %2, i64 0, i64 %20
  %26 = load i8, i8* %25, align 1, !tbaa !5
  switch i8 %26, label %42 [
    i8 65, label %27
    i8 84, label %27
    i8 67, label %27
    i8 71, label %27
  ]

27:                                               ; preds = %24, %24, %24, %24
  %28 = icmp eq i8 %23, %26
  %29 = zext i1 %28 to i32
  %30 = add nuw nsw i32 %21, %29
  %31 = add nuw nsw i64 %20, 1
  %32 = icmp eq i64 %31, %18
  br i1 %32, label %33, label %19, !llvm.loop !8

33:                                               ; preds = %27
  %34 = sitofp i32 %30 to float
  br label %35

35:                                               ; preds = %33, %15
  %36 = phi float [ 0.000000e+00, %15 ], [ %34, %33 ]
  %37 = sitofp i32 %11 to float
  %38 = fdiv float %36, %37
  %39 = load float, float* %3, align 4, !tbaa !10
  %40 = fcmp ogt float %38, %39
  %41 = select i1 %40, i8* getelementptr inbounds ([4 x i8], [4 x i8]* @.str.3, i64 0, i64 0), i8* getelementptr inbounds ([3 x i8], [3 x i8]* @.str.4, i64 0, i64 0)
  br label %42

42:                                               ; preds = %19, %24, %35, %0
  %43 = phi i8* [ getelementptr inbounds ([6 x i8], [6 x i8]* @.str.2, i64 0, i64 0), %0 ], [ %41, %35 ], [ getelementptr inbounds ([6 x i8], [6 x i8]* @.str.2, i64 0, i64 0), %24 ], [ getelementptr inbounds ([6 x i8], [6 x i8]* @.str.2, i64 0, i64 0), %19 ]
  %44 = call i32 (i8*, ...) @printf(i8* nonnull dereferenceable(1) %43)
  call void @llvm.lifetime.end.p0i8(i64 4, i8* nonnull %6) #5
  call void @llvm.lifetime.end.p0i8(i64 100, i8* nonnull %5) #5
  call void @llvm.lifetime.end.p0i8(i64 100, i8* nonnull %4) #5
  ret i32 0
}

; Function Attrs: argmemonly mustprogress nofree nosync nounwind willreturn
declare void @llvm.lifetime.start.p0i8(i64 immarg, i8* nocapture) #1

; Function Attrs: argmemonly mustprogress nofree nounwind willreturn writeonly
declare void @llvm.memset.p0i8.i64(i8* nocapture writeonly, i8, i64, i1 immarg) #2

; Function Attrs: nofree nounwind
declare noundef i32 @__isoc99_scanf(i8* nocapture noundef readonly, ...) local_unnamed_addr #3

; Function Attrs: argmemonly mustprogress nofree nounwind readonly willreturn
declare i64 @strlen(i8* nocapture) local_unnamed_addr #4

; Function Attrs: nofree nounwind
declare noundef i32 @printf(i8* nocapture noundef readonly, ...) local_unnamed_addr #3

; Function Attrs: argmemonly mustprogress nofree nosync nounwind willreturn
declare void @llvm.lifetime.end.p0i8(i64 immarg, i8* nocapture) #1


!llvm.module.flags = !{!0, !1, !2, !3}
!llvm.ident = !{!4}

!0 = !{i32 1, !"wchar_size", i32 4}
!1 = !{i32 7, !"PIC Level", i32 2}
!2 = !{i32 7, !"PIE Level", i32 2}
!3 = !{i32 7, !"uwtable", i32 1}
!4 = !{!"clang version 13.0.0"}
!5 = !{!6, !6, i64 0}
!6 = !{!"omnipotent char", !7, i64 0}
!7 = !{!"Simple C/C++ TBAA"}
!8 = distinct !{!8, !9}
!9 = !{!"llvm.loop.mustprogress"}
!10 = !{!11, !11, i64 0}
!11 = !{!"float", !6, i64 0}
